; Function Attrs: mustprogress uwtable
define internal void @_ZNK7doctest6detail12ContextScopeIZN12_GLOBAL__N_121DOCTEST_ANON_CLASS_631fEvEUlPSoE0_E9stringifyES4_(ptr noundef nonnull readonly align 8 captures(none) dereferenceable(24) %0, ptr noundef %1) unnamed_addr #5 align 2 personality ptr @__gxx_personality_v0 {
  %3 = alloca %"struct.doctest::detail::MessageBuilder", align 8
  %4 = getelementptr inbounds nuw i8, ptr %0, i64 16
  call void @llvm.lifetime.start.p0(i64 56, ptr nonnull %3)
  call void @_ZN7doctest6detail14MessageBuilderC1EPKciNS_10assertType4EnumE(ptr noundef nonnull align 8 dereferenceable(49) %3, ptr noundef nonnull @.str.57, i32 noundef 171, i32 noundef 1)
  %5 = getelementptr inbounds nuw i8, ptr %3, i64 40
  store ptr %1, ptr %5, align 8
  %6 = load ptr, ptr %4, align 8
  %7 = load ptr, ptr %6, align 8
  %8 = invoke noundef nonnull align 8 dereferenceable(49) ptr @_ZN7doctest6detail14MessageBuildercmIN4Luau9TypeErrorEEERS1_RKT_(ptr noundef nonnull align 8 dereferenceable(49) %3, ptr noundef nonnull align 8 dereferenceable(160) %7)
          to label %_ZZN12_GLOBAL__N_121DOCTEST_ANON_CLASS_631fEvENKUlPSoE0_clES1_.exit unwind label %9

9:                                                ; preds = %2
  %10 = landingpad { ptr, i32 }
          cleanup
  call void @_ZN7doctest6detail14MessageBuilderD1Ev(ptr noundef nonnull align 8 dereferenceable(49) %3) #19
  resume { ptr, i32 } %10

_ZZN12_GLOBAL__N_121DOCTEST_ANON_CLASS_631fEvENKUlPSoE0_clES1_.exit: ; preds = %2
  call void @_ZN7doctest6detail14MessageBuilderD1Ev(ptr noundef nonnull align 8 dereferenceable(49) %3) #19
  call void @llvm.lifetime.end.p0(i64 56, ptr nonnull %3)
  ret void
}